; Function Attrs: mustprogress nofree nounwind willreturn uwtable
define double @pg_prng_double(ptr noundef captures(none) %0) local_unnamed_addr #3 {
  %2 = load i64, ptr %0, align 8
  %3 = getelementptr inbounds nuw i8, ptr %0, i64 8
  %4 = load i64, ptr %3, align 8
  %5 = xor i64 %4, %2
  %6 = mul i64 %2, 5
  %7 = mul i64 %2, 640
  %8 = lshr i64 %6, 57
  %9 = or disjoint i64 %8, %7
  %10 = mul i64 %9, 9
  %11 = tail call i64 @llvm.fshl.i64(i64 %2, i64 %2, i64 24)
  %12 = shl i64 %5, 16
  %13 = xor i64 %11, %12
  %14 = xor i64 %13, %5
  store i64 %14, ptr %0, align 8
  %15 = tail call i64 @llvm.fshl.i64(i64 %5, i64 %5, i64 37)
  store i64 %15, ptr %3, align 8
  %16 = lshr i64 %10, 12
  %17 = uitofp nneg i64 %16 to double
  %18 = tail call double @ldexp(double noundef %17, i32 noundef -52) #8
  ret double %18
}